target datalayout = "e-m:e-p270:32:32-p271:32:32-p272:64:64-i64:64-i128:128-f80:128-n8:16:32:64-S128"
target triple = "x86_64-pc-linux-gnu"

%struct.alts_shared_resource_dedicated = type { %"class.grpc_core::Thread", ptr, ptr, %struct.grpc_cq_completion, i64, ptr }
%"class.grpc_core::Thread" = type { i32, ptr, %"class.grpc_core::Thread::Options" }
%"class.grpc_core::Thread::Options" = type { i8, i8, i64 }
%struct.grpc_cq_completion = type { %"class.grpc_core::ManualConstructor", ptr, ptr, ptr, i64 }
%"class.grpc_core::ManualConstructor" = type { [8 x i8] }
%struct.grpc_event = type { i32, i32, ptr }
%struct.gpr_timespec = type { i64, i32, i32 }
%"class.absl::lts_20240722::log_internal::Voidify" = type { i8 }
%"class.absl::lts_20240722::log_internal::LogMessageFatal" = type { %"class.absl::lts_20240722::log_internal::LogMessage" }
%"class.absl::lts_20240722::log_internal::LogMessage" = type { %"class.absl::lts_20240722::base_internal::ErrnoSaver", %"class.std::unique_ptr" }
%"class.absl::lts_20240722::base_internal::ErrnoSaver" = type { i32 }
%"class.std::unique_ptr" = type { %"struct.std::__uniq_ptr_data" }
%"struct.std::__uniq_ptr_data" = type { %"class.std::__uniq_ptr_impl" }
%"class.std::__uniq_ptr_impl" = type { %"class.std::tuple" }
%"class.std::tuple" = type { %"struct.std::_Tuple_impl" }
%"struct.std::_Tuple_impl" = type { %"struct.std::_Head_base.1" }
%"struct.std::_Head_base.1" = type { ptr }
%"class.std::basic_string_view" = type { i64, ptr }

@_ZL25g_alts_resource_dedicated = internal global %struct.alts_shared_resource_dedicated zeroinitializer, align 8
@.str.3 = private unnamed_addr constant [140 x i8] c"generated/home/dtcxzyw/WorkSpace/Projects/compilers/llvm-opt-benchmark/bench/grpc/grpc/src/core/tsi/alts/handshaker/alts_shared_resource.cc\00", align 1
@.str.4 = private unnamed_addr constant [33 x i8] c"event.type != GRPC_QUEUE_TIMEOUT\00", align 1
@.str.5 = private unnamed_addr constant [31 x i8] c"event.type == GRPC_OP_COMPLETE\00", align 1

; Function Attrs: noinline noreturn nounwind uwtable
define linkonce_odr hidden void @__clang_call_terminate(ptr noundef %0) #12 comdat {
  %2 = call ptr @__cxa_begin_catch(ptr %0) #3
  call void @_ZSt9terminatev() #15
  unreachable
}

; Function Attrs: mustprogress nounwind uwtable
define linkonce_odr noundef i64 @_ZNSt11char_traitsIcE6lengthEPKc(ptr noundef %0) #6 comdat align 2 {
  %2 = alloca ptr, align 8
  store ptr %0, ptr %2, align 8, !tbaa !21
  %3 = load ptr, ptr %2, align 8, !tbaa !21
  %4 = call i64 @strlen(ptr noundef %3) #3
  ret i64 %4
}

; Function Attrs: mustprogress nounwind uwtable
define linkonce_odr void @_ZNKO4absl12lts_2024072212log_internal7VoidifyaaINS1_10LogMessageEEEvRKT_(ptr noundef nonnull align 1 dereferenceable(1) %0, ptr noundef nonnull align 8 dereferenceable(16) %1) #6 comdat align 2 {
  %3 = alloca ptr, align 8
  %4 = alloca ptr, align 8
  store ptr %0, ptr %3, align 8, !tbaa !55
  store ptr %1, ptr %4, align 8, !tbaa !57
  ret void
}

; Function Attrs: mustprogress nounwind uwtable
define linkonce_odr noundef nonnull align 8 dereferenceable(16) ptr @_ZN4absl12lts_2024072212log_internal10LogMessage14InternalStreamEv(ptr noundef nonnull align 8 dereferenceable(16) %0) #6 comdat align 2 {
  %2 = alloca ptr, align 8
  store ptr %0, ptr %2, align 8, !tbaa !57
  %3 = load ptr, ptr %2, align 8
  ret ptr %3
}

; Function Attrs: mustprogress nounwind uwtable
define linkonce_odr void @_ZNSt17basic_string_viewIcSt11char_traitsIcEEC2EPKc(ptr noundef nonnull align 8 dereferenceable(16) %0, ptr noundef nonnull %1) unnamed_addr #6 comdat align 2 personality ptr @__gxx_personality_v0 {
  %3 = alloca ptr, align 8
  %4 = alloca ptr, align 8
  store ptr %0, ptr %3, align 8, !tbaa !59
  store ptr %1, ptr %4, align 8, !tbaa !21
  %5 = load ptr, ptr %3, align 8
  %6 = getelementptr inbounds nuw %"class.std::basic_string_view", ptr %5, i32 0, i32 0
  %7 = load ptr, ptr %4, align 8, !tbaa !21
  %8 = invoke noundef i64 @_ZNSt11char_traitsIcE6lengthEPKc(ptr noundef %7)
          to label %9 unwind label %12

9:                                                ; preds = %2
  store i64 %8, ptr %6, align 8, !tbaa !61
  %10 = getelementptr inbounds nuw %"class.std::basic_string_view", ptr %5, i32 0, i32 1
  %11 = load ptr, ptr %4, align 8, !tbaa !21
  store ptr %11, ptr %10, align 8, !tbaa !63
  ret void

12:                                               ; preds = %2
  %13 = landingpad { ptr, i32 }
          catch ptr null
  %14 = extractvalue { ptr, i32 } %13, 0
  call void @__clang_call_terminate(ptr %14) #15
  unreachable
}

; Function Attrs: mustprogress uwtable
define internal void @_ZL13thread_workerPv(ptr noundef %0) #7 personality ptr @__gxx_personality_v0 {
  %2 = alloca ptr, align 8
  %3 = alloca %struct.grpc_event, align 8
  %4 = alloca %struct.gpr_timespec, align 8
  %5 = alloca %"class.absl::lts_20240722::log_internal::Voidify", align 1
  %6 = alloca %"class.absl::lts_20240722::log_internal::LogMessageFatal", align 8
  %7 = alloca i1, align 1
  %8 = alloca %"class.std::basic_string_view", align 8
  %9 = alloca i1, align 1
  %10 = alloca ptr, align 8
  %11 = alloca i32, align 4
  %12 = alloca i32, align 4
  %13 = alloca %"class.absl::lts_20240722::log_internal::Voidify", align 1
  %14 = alloca %"class.absl::lts_20240722::log_internal::LogMessageFatal", align 8
  %15 = alloca i1, align 1
  %16 = alloca %"class.std::basic_string_view", align 8
  %17 = alloca i1, align 1
  %18 = alloca ptr, align 8
  store ptr %0, ptr %2, align 8, !tbaa !30
  br label %19

19:                                               ; preds = %1, %112
  call void @llvm.lifetime.start.p0(i64 16, ptr %3) #3
  %20 = load ptr, ptr getelementptr inbounds nuw (%struct.alts_shared_resource_dedicated, ptr @_ZL25g_alts_resource_dedicated, i32 0, i32 1), align 8, !tbaa !8
  %21 = call { i64, i64 } @gpr_inf_future(i32 noundef 1)
  %22 = getelementptr inbounds nuw { i64, i64 }, ptr %4, i32 0, i32 0
  %23 = extractvalue { i64, i64 } %21, 0
  store i64 %23, ptr %22, align 8
  %24 = getelementptr inbounds nuw { i64, i64 }, ptr %4, i32 0, i32 1
  %25 = extractvalue { i64, i64 } %21, 1
  store i64 %25, ptr %24, align 8
  %26 = getelementptr inbounds nuw { i64, i64 }, ptr %4, i32 0, i32 0
  %27 = load i64, ptr %26, align 8
  %28 = getelementptr inbounds nuw { i64, i64 }, ptr %4, i32 0, i32 1
  %29 = load i64, ptr %28, align 8
  %30 = call { i64, ptr } @grpc_completion_queue_next(ptr noundef %20, i64 %27, i64 %29, ptr noundef null)
  %31 = getelementptr inbounds nuw { i64, ptr }, ptr %3, i32 0, i32 0
  %32 = extractvalue { i64, ptr } %30, 0
  store i64 %32, ptr %31, align 8
  %33 = getelementptr inbounds nuw { i64, ptr }, ptr %3, i32 0, i32 1
  %34 = extractvalue { i64, ptr } %30, 1
  store ptr %34, ptr %33, align 8
  %35 = getelementptr inbounds nuw %struct.grpc_event, ptr %3, i32 0, i32 0
  %36 = load i32, ptr %35, align 8, !tbaa !31
  %37 = icmp ne i32 %36, 1
  %38 = xor i1 %37, true
  %39 = zext i1 %38 to i64
  %40 = call i64 @llvm.expect.i64(i64 %39, i64 0)
  %41 = icmp ne i64 %40, 0
  call void @llvm.lifetime.start.p0(i64 1, ptr %5) #3
  store i1 false, ptr %7, align 1
  store i1 false, ptr %9, align 1
  br i1 %41, label %43, label %42

42:                                               ; preds = %19
  br label %51

43:                                               ; preds = %19
  call void @llvm.lifetime.start.p0(i64 16, ptr %6) #3
  store i1 true, ptr %7, align 1
  call void @_ZNSt17basic_string_viewIcSt11char_traitsIcEEC2EPKc(ptr noundef nonnull align 8 dereferenceable(16) %8, ptr noundef @.str.4) #3
  %44 = getelementptr inbounds nuw { i64, ptr }, ptr %8, i32 0, i32 0
  %45 = load i64, ptr %44, align 8
  %46 = getelementptr inbounds nuw { i64, ptr }, ptr %8, i32 0, i32 1
  %47 = load ptr, ptr %46, align 8
  call void @_ZN4absl12lts_2024072212log_internal15LogMessageFatalC1EPKciSt17basic_string_viewIcSt11char_traitsIcEE(ptr noundef nonnull align 8 dereferenceable(16) %6, ptr noundef @.str.3, i32 noundef 39, i64 %45, ptr %47) #14
  store i1 true, ptr %9, align 1
  %48 = invoke noundef nonnull align 8 dereferenceable(16) ptr @_ZN4absl12lts_2024072212log_internal10LogMessage14InternalStreamEv(ptr noundef nonnull align 8 dereferenceable(16) %6)
          to label %49 unwind label %54

49:                                               ; preds = %43
  invoke void @_ZNKO4absl12lts_2024072212log_internal7VoidifyaaINS1_10LogMessageEEEvRKT_(ptr noundef nonnull align 1 dereferenceable(1) %5, ptr noundef nonnull align 8 dereferenceable(16) %48)
          to label %50 unwind label %54

50:                                               ; preds = %49
  br label %51

51:                                               ; preds = %50, %42
  %52 = load i1, ptr %9, align 1
  br i1 %52, label %53, label %60

53:                                               ; preds = %51
  call void @_ZN4absl12lts_2024072212log_internal15LogMessageFatalD1Ev(ptr noundef nonnull align 8 dereferenceable(16) %6) #15
  unreachable

54:                                               ; preds = %49, %43
  %55 = landingpad { ptr, i32 }
          cleanup
  %56 = extractvalue { ptr, i32 } %55, 0
  store ptr %56, ptr %10, align 8
  %57 = extractvalue { ptr, i32 } %55, 1
  store i32 %57, ptr %11, align 4
  %58 = load i1, ptr %9, align 1
  br i1 %58, label %68, label %70

59:                                               ; No predecessors!
  br label %60

60:                                               ; preds = %59, %51
  %61 = load i1, ptr %7, align 1
  br i1 %61, label %62, label %63

62:                                               ; preds = %60
  call void @llvm.lifetime.end.p0(i64 16, ptr %6) #3
  br label %63

63:                                               ; preds = %62, %60
  call void @llvm.lifetime.end.p0(i64 1, ptr %5) #3
  %64 = getelementptr inbounds nuw %struct.grpc_event, ptr %3, i32 0, i32 0
  %65 = load i32, ptr %64, align 8, !tbaa !31
  %66 = icmp eq i32 %65, 0
  br i1 %66, label %67, label %74

67:                                               ; preds = %63
  store i32 3, ptr %12, align 4
  br label %110

68:                                               ; preds = %54
  call void @_ZN4absl12lts_2024072212log_internal15LogMessageFatalD1Ev(ptr noundef nonnull align 8 dereferenceable(16) %6) #15
  unreachable

69:                                               ; No predecessors!
  br label %70

70:                                               ; preds = %69, %54
  %71 = load i1, ptr %7, align 1
  br i1 %71, label %72, label %73

72:                                               ; preds = %70
  call void @llvm.lifetime.end.p0(i64 16, ptr %6) #3
  br label %73

73:                                               ; preds = %72, %70
  call void @llvm.lifetime.end.p0(i64 1, ptr %5) #3
  br label %119

74:                                               ; preds = %63
  %75 = getelementptr inbounds nuw %struct.grpc_event, ptr %3, i32 0, i32 0
  %76 = load i32, ptr %75, align 8, !tbaa !31
  %77 = icmp eq i32 %76, 2
  %78 = xor i1 %77, true
  %79 = zext i1 %78 to i64
  %80 = call i64 @llvm.expect.i64(i64 %79, i64 0)
  %81 = icmp ne i64 %80, 0
  call void @llvm.lifetime.start.p0(i64 1, ptr %13) #3
  store i1 false, ptr %15, align 1
  store i1 false, ptr %17, align 1
  br i1 %81, label %83, label %82

82:                                               ; preds = %74
  br label %91

83:                                               ; preds = %74
  call void @llvm.lifetime.start.p0(i64 16, ptr %14) #3
  store i1 true, ptr %15, align 1
  call void @_ZNSt17basic_string_viewIcSt11char_traitsIcEEC2EPKc(ptr noundef nonnull align 8 dereferenceable(16) %16, ptr noundef @.str.5) #3
  %84 = getelementptr inbounds nuw { i64, ptr }, ptr %16, i32 0, i32 0
  %85 = load i64, ptr %84, align 8
  %86 = getelementptr inbounds nuw { i64, ptr }, ptr %16, i32 0, i32 1
  %87 = load ptr, ptr %86, align 8
  call void @_ZN4absl12lts_2024072212log_internal15LogMessageFatalC1EPKciSt17basic_string_viewIcSt11char_traitsIcEE(ptr noundef nonnull align 8 dereferenceable(16) %14, ptr noundef @.str.3, i32 noundef 43, i64 %85, ptr %87) #14
  store i1 true, ptr %17, align 1
  %88 = invoke noundef nonnull align 8 dereferenceable(16) ptr @_ZN4absl12lts_2024072212log_internal10LogMessage14InternalStreamEv(ptr noundef nonnull align 8 dereferenceable(16) %14)
          to label %89 unwind label %94

89:                                               ; preds = %83
  invoke void @_ZNKO4absl12lts_2024072212log_internal7VoidifyaaINS1_10LogMessageEEEvRKT_(ptr noundef nonnull align 1 dereferenceable(1) %13, ptr noundef nonnull align 8 dereferenceable(16) %88)
          to label %90 unwind label %94

90:                                               ; preds = %89
  br label %91

91:                                               ; preds = %90, %82
  %92 = load i1, ptr %17, align 1
  br i1 %92, label %93, label %100

93:                                               ; preds = %91
  call void @_ZN4absl12lts_2024072212log_internal15LogMessageFatalD1Ev(ptr noundef nonnull align 8 dereferenceable(16) %14) #15
  unreachable

94:                                               ; preds = %89, %83
  %95 = landingpad { ptr, i32 }
          cleanup
  %96 = extractvalue { ptr, i32 } %95, 0
  store ptr %96, ptr %10, align 8
  %97 = extractvalue { ptr, i32 } %95, 1
  store i32 %97, ptr %11, align 4
  %98 = load i1, ptr %17, align 1
  br i1 %98, label %113, label %115

99:                                               ; No predecessors!
  br label %100

100:                                              ; preds = %99, %91
  %101 = load i1, ptr %15, align 1
  br i1 %101, label %102, label %103

102:                                              ; preds = %100
  call void @llvm.lifetime.end.p0(i64 16, ptr %14) #3
  br label %103

103:                                              ; preds = %102, %100
  call void @llvm.lifetime.end.p0(i64 1, ptr %13) #3
  call void @llvm.lifetime.start.p0(i64 8, ptr %18) #3
  %104 = getelementptr inbounds nuw %struct.grpc_event, ptr %3, i32 0, i32 2
  %105 = load ptr, ptr %104, align 8, !tbaa !35
  store ptr %105, ptr %18, align 8, !tbaa !36
  %106 = load ptr, ptr %18, align 8, !tbaa !36
  %107 = getelementptr inbounds nuw %struct.grpc_event, ptr %3, i32 0, i32 1
  %108 = load i32, ptr %107, align 4, !tbaa !38
  %109 = icmp ne i32 %108, 0
  call void @_Z38alts_handshaker_client_handle_responseP22alts_handshaker_clientb(ptr noundef %106, i1 noundef zeroext %109)
  call void @llvm.lifetime.end.p0(i64 8, ptr %18) #3
  store i32 0, ptr %12, align 4
  br label %110

110:                                              ; preds = %103, %67
  call void @llvm.lifetime.end.p0(i64 16, ptr %3) #3
  %111 = load i32, ptr %12, align 4
  switch i32 %111, label %126 [
    i32 0, label %112
    i32 3, label %120
  ]

112:                                              ; preds = %110
  br label %19, !llvm.loop !39

113:                                              ; preds = %94
  call void @_ZN4absl12lts_2024072212log_internal15LogMessageFatalD1Ev(ptr noundef nonnull align 8 dereferenceable(16) %14) #15
  unreachable

114:                                              ; No predecessors!
  br label %115

115:                                              ; preds = %114, %94
  %116 = load i1, ptr %15, align 1
  br i1 %116, label %117, label %118

117:                                              ; preds = %115
  call void @llvm.lifetime.end.p0(i64 16, ptr %14) #3
  br label %118

118:                                              ; preds = %117, %115
  call void @llvm.lifetime.end.p0(i64 1, ptr %13) #3
  br label %119

119:                                              ; preds = %118, %73
  call void @llvm.lifetime.end.p0(i64 16, ptr %3) #3
  br label %121

120:                                              ; preds = %110
  ret void

121:                                              ; preds = %119
  %122 = load ptr, ptr %10, align 8
  %123 = load i32, ptr %11, align 4
  %124 = insertvalue { ptr, i32 } poison, ptr %122, 0
  %125 = insertvalue { ptr, i32 } %124, i32 %123, 1
  resume { ptr, i32 } %125

126:                                              ; preds = %110
  unreachable
}