; Function Attrs: mustprogress uwtable
define internal void @_ZL13thread_workerPv(ptr readnone captures(none) %0) #5 personality ptr @__gxx_personality_v0 {
  %2 = alloca %"class.absl::lts_20240722::log_internal::LogMessageFatal", align 8
  %3 = alloca %"class.absl::lts_20240722::log_internal::LogMessageFatal", align 8
  br label %4

4:                                                ; preds = %13, %1
  %5 = load ptr, ptr getelementptr inbounds nuw (i8, ptr @_ZL25g_alts_resource_dedicated, i64 32), align 8, !tbaa !12
  %6 = tail call { i64, i64 } @gpr_inf_future(i32 noundef 1)
  %7 = extractvalue { i64, i64 } %6, 0
  %8 = extractvalue { i64, i64 } %6, 1
  %9 = tail call { i64, ptr } @grpc_completion_queue_next(ptr noundef %5, i64 %7, i64 %8, ptr noundef null)
  %10 = extractvalue { i64, ptr } %9, 0
  %.sroa.05.0.extract.trunc = trunc i64 %10 to i32
  switch i32 %.sroa.05.0.extract.trunc, label %12 [
    i32 1, label %11
    i32 0, label %16
    i32 2, label %13
  ], !prof !38

11:                                               ; preds = %4
  call void @llvm.lifetime.start.p0(i64 16, ptr nonnull %2) #13
  call void @_ZN4absl12lts_2024072212log_internal15LogMessageFatalC1EPKciSt17basic_string_viewIcSt11char_traitsIcEE(ptr noundef nonnull align 8 dereferenceable(16) %2, ptr noundef nonnull @.str.3, i32 noundef 39, i64 32, ptr nonnull @.str.4) #14
  call void @_ZN4absl12lts_2024072212log_internal15LogMessageFatalD1Ev(ptr noundef nonnull align 8 dereferenceable(16) %2) #15
  unreachable

12:                                               ; preds = %4
  call void @llvm.lifetime.start.p0(i64 16, ptr nonnull %3) #13
  call void @_ZN4absl12lts_2024072212log_internal15LogMessageFatalC1EPKciSt17basic_string_viewIcSt11char_traitsIcEE(ptr noundef nonnull align 8 dereferenceable(16) %3, ptr noundef nonnull @.str.3, i32 noundef 43, i64 30, ptr nonnull @.str.5) #14
  call void @_ZN4absl12lts_2024072212log_internal15LogMessageFatalD1Ev(ptr noundef nonnull align 8 dereferenceable(16) %3) #15
  unreachable

13:                                               ; preds = %4
  %14 = extractvalue { i64, ptr } %9, 1
  %15 = icmp ugt i64 %10, 4294967295
  tail call void @_Z38alts_handshaker_client_handle_responseP22alts_handshaker_clientb(ptr noundef %14, i1 noundef zeroext %15)
  br label %4

16:                                               ; preds = %4
  ret void
}